; Function Attrs: mustprogress nounwind uwtable
define hidden noundef i64 @_ZN20ElapsedCounterSource12microsecondsEl(i64 noundef %0) local_unnamed_addr #0 align 2 {
  %2 = load atomic i8, ptr @_ZGVZN20ElapsedCounterSource9frequencyEvE4freq acquire, align 8
  %3 = icmp eq i8 %2, 0
  br i1 %3, label %4, label %_Z10conversionI20ElapsedCounterSourceLi1000000EEdRNT_4TypeE.exit, !prof !6

4:                                                ; preds = %1
  %5 = tail call i32 @__cxa_guard_acquire(ptr nonnull @_ZGVZN20ElapsedCounterSource9frequencyEvE4freq) #3
  %.not.i.i = icmp eq i32 %5, 0
  br i1 %.not.i.i, label %_Z10conversionI20ElapsedCounterSourceLi1000000EEdRNT_4TypeE.exit, label %6

6:                                                ; preds = %4
  %7 = tail call noundef i64 @_ZN2os17elapsed_frequencyEv() #3
  store i64 %7, ptr @_ZZN20ElapsedCounterSource9frequencyEvE4freq, align 8
  tail call void @__cxa_guard_release(ptr nonnull @_ZGVZN20ElapsedCounterSource9frequencyEvE4freq) #3
  br label %_Z10conversionI20ElapsedCounterSourceLi1000000EEdRNT_4TypeE.exit

_Z10conversionI20ElapsedCounterSourceLi1000000EEdRNT_4TypeE.exit: ; preds = %1, %4, %6
  %8 = sitofp i64 %0 to double
  %9 = load i64, ptr @_ZZN20ElapsedCounterSource9frequencyEvE4freq, align 8
  %10 = uitofp i64 %9 to double
  %11 = fdiv double 1.000000e+06, %10
  %12 = fmul double %11, %8
  %13 = fptoui double %12 to i64
  ret i64 %13
}